target datalayout = "e-m:e-p270:32:32-p271:32:32-p272:64:64-i64:64-i128:128-f80:128-n8:16:32:64-S128"
target triple = "x86_64-unknown-linux-gnu"

%"class.std::shared_ptr.10" = type { %"class.std::__shared_ptr.11" }
%"class.std::__shared_ptr.11" = type { ptr, %"class.std::__shared_count" }
%"class.std::__shared_count" = type { ptr }
%"class.std::__shared_ptr.2" = type { ptr, %"class.std::__shared_count" }

; Function Attrs: mustprogress nounwind uwtable
define linkonce_odr noundef ptr @_ZNKSt12__shared_ptrIN5arrow12ArrayBuilderELN9__gnu_cxx12_Lock_policyE2EE3getEv(ptr noundef nonnull align 8 dereferenceable(16) %this) #1 comdat align 2 {
entry:
  %this.addr = alloca ptr, align 8
  store ptr %this, ptr %this.addr, align 8
  %this1 = load ptr, ptr %this.addr, align 8
  %_M_ptr = getelementptr inbounds %"class.std::__shared_ptr.2", ptr %this1, i32 0, i32 0
  %0 = load ptr, ptr %_M_ptr, align 8
  ret ptr %0
}

; Function Attrs: mustprogress nounwind uwtable
define linkonce_odr noundef ptr @_ZNKSt19__shared_ptr_accessIN5arrow12ArrayBuilderELN9__gnu_cxx12_Lock_policyE2ELb0ELb0EE6_M_getEv(ptr noundef nonnull align 1 dereferenceable(1) %this) #1 comdat align 2 {
entry:
  %this.addr = alloca ptr, align 8
  store ptr %this, ptr %this.addr, align 8
  %this1 = load ptr, ptr %this.addr, align 8
  %call = call noundef ptr @_ZNKSt12__shared_ptrIN5arrow12ArrayBuilderELN9__gnu_cxx12_Lock_policyE2EE3getEv(ptr noundef nonnull align 8 dereferenceable(16) %this1) #12
  ret ptr %call
}

; Function Attrs: mustprogress nounwind uwtable
define linkonce_odr noundef ptr @_ZNKSt19__shared_ptr_accessIN5arrow12ArrayBuilderELN9__gnu_cxx12_Lock_policyE2ELb0ELb0EEptEv(ptr noundef nonnull align 1 dereferenceable(1) %this) #1 comdat align 2 {
entry:
  %this.addr = alloca ptr, align 8
  store ptr %this, ptr %this.addr, align 8
  %this1 = load ptr, ptr %this.addr, align 8
  %call = call noundef ptr @_ZNKSt19__shared_ptr_accessIN5arrow12ArrayBuilderELN9__gnu_cxx12_Lock_policyE2ELb0ELb0EE6_M_getEv(ptr noundef nonnull align 1 dereferenceable(1) %this1) #12
  ret ptr %call
}

; Function Attrs: mustprogress uwtable
define void @_ZN5arrow10MapBuilderC2EPNS_10MemoryPoolERKSt10shared_ptrINS_12ArrayBuilderEES7_b(ptr noundef nonnull align 8 dereferenceable(296) %this, ptr noundef %pool, ptr noundef nonnull align 8 dereferenceable(16) %key_builder, ptr noundef nonnull align 8 dereferenceable(16) %item_builder, i1 noundef zeroext %keys_sorted) unnamed_addr #0 align 2 personality ptr @__gxx_personality_v0 {
entry:
  %this.addr = alloca ptr, align 8
  %pool.addr = alloca ptr, align 8
  %key_builder.addr = alloca ptr, align 8
  %item_builder.addr = alloca ptr, align 8
  %keys_sorted.addr = alloca i8, align 1
  %ref.tmp = alloca %"class.std::shared_ptr.10", align 8
  %agg.tmp = alloca %"class.std::shared_ptr.10", align 8
  %agg.tmp2 = alloca %"class.std::shared_ptr.10", align 8
  %exn.slot = alloca ptr, align 8
  %ehselector.slot = alloca i32, align 4
  store ptr %this, ptr %this.addr, align 8
  store ptr %pool, ptr %pool.addr, align 8
  store ptr %key_builder, ptr %key_builder.addr, align 8
  store ptr %item_builder, ptr %item_builder.addr, align 8
  %frombool = zext i1 %keys_sorted to i8
  store i8 %frombool, ptr %keys_sorted.addr, align 1
  %this1 = load ptr, ptr %this.addr, align 8
  %0 = load ptr, ptr %pool.addr, align 8
  %1 = load ptr, ptr %key_builder.addr, align 8
  %2 = load ptr, ptr %item_builder.addr, align 8
  %3 = load ptr, ptr %key_builder.addr, align 8
  %call = call noundef ptr @_ZNKSt19__shared_ptr_accessIN5arrow12ArrayBuilderELN9__gnu_cxx12_Lock_policyE2ELb0ELb0EEptEv(ptr noundef nonnull align 1 dereferenceable(1) %3) #12
  %vtable = load ptr, ptr %call, align 8
  %vfn = getelementptr inbounds ptr, ptr %vtable, i64 13
  %4 = load ptr, ptr %vfn, align 8
  call void %4(ptr sret(%"class.std::shared_ptr.10") align 8 %agg.tmp, ptr noundef nonnull align 8 dereferenceable(144) %call)
  %5 = load ptr, ptr %item_builder.addr, align 8
  %call3 = call noundef ptr @_ZNKSt19__shared_ptr_accessIN5arrow12ArrayBuilderELN9__gnu_cxx12_Lock_policyE2ELb0ELb0EEptEv(ptr noundef nonnull align 1 dereferenceable(1) %5) #12
  %vtable4 = load ptr, ptr %call3, align 8
  %vfn5 = getelementptr inbounds ptr, ptr %vtable4, i64 13
  %6 = load ptr, ptr %vfn5, align 8
  invoke void %6(ptr sret(%"class.std::shared_ptr.10") align 8 %agg.tmp2, ptr noundef nonnull align 8 dereferenceable(144) %call3)
          to label %invoke.cont unwind label %lpad

invoke.cont:                                      ; preds = %entry
  %7 = load i8, ptr %keys_sorted.addr, align 1
  %tobool = trunc i8 %7 to i1
  invoke void @_ZN5arrow3mapESt10shared_ptrINS_8DataTypeEES2_b(ptr sret(%"class.std::shared_ptr.10") align 8 %ref.tmp, ptr noundef %agg.tmp, ptr noundef %agg.tmp2, i1 noundef zeroext %tobool)
          to label %invoke.cont7 unwind label %lpad6

invoke.cont7:                                     ; preds = %invoke.cont
  invoke void @_ZN5arrow10MapBuilderC2EPNS_10MemoryPoolERKSt10shared_ptrINS_12ArrayBuilderEES7_RKS3_INS_8DataTypeEE(ptr noundef nonnull align 8 dereferenceable(296) %this1, ptr noundef %0, ptr noundef nonnull align 8 dereferenceable(16) %1, ptr noundef nonnull align 8 dereferenceable(16) %2, ptr noundef nonnull align 8 dereferenceable(16) %ref.tmp)
          to label %invoke.cont9 unwind label %lpad8

invoke.cont9:                                     ; preds = %invoke.cont7
  call void @_ZNSt10shared_ptrIN5arrow8DataTypeEED2Ev(ptr noundef nonnull align 8 dereferenceable(16) %ref.tmp) #12
  call void @_ZNSt10shared_ptrIN5arrow8DataTypeEED2Ev(ptr noundef nonnull align 8 dereferenceable(16) %agg.tmp2) #12
  call void @_ZNSt10shared_ptrIN5arrow8DataTypeEED2Ev(ptr noundef nonnull align 8 dereferenceable(16) %agg.tmp) #12
  ret void

lpad:                                             ; preds = %entry
  %8 = landingpad { ptr, i32 }
          cleanup
  %9 = extractvalue { ptr, i32 } %8, 0
  store ptr %9, ptr %exn.slot, align 8
  %10 = extractvalue { ptr, i32 } %8, 1
  store i32 %10, ptr %ehselector.slot, align 4
  br label %ehcleanup10

lpad6:                                            ; preds = %invoke.cont
  %11 = landingpad { ptr, i32 }
          cleanup
  %12 = extractvalue { ptr, i32 } %11, 0
  store ptr %12, ptr %exn.slot, align 8
  %13 = extractvalue { ptr, i32 } %11, 1
  store i32 %13, ptr %ehselector.slot, align 4
  br label %ehcleanup

lpad8:                                            ; preds = %invoke.cont7
  %14 = landingpad { ptr, i32 }
          cleanup
  %15 = extractvalue { ptr, i32 } %14, 0
  store ptr %15, ptr %exn.slot, align 8
  %16 = extractvalue { ptr, i32 } %14, 1
  store i32 %16, ptr %ehselector.slot, align 4
  call void @_ZNSt10shared_ptrIN5arrow8DataTypeEED2Ev(ptr noundef nonnull align 8 dereferenceable(16) %ref.tmp) #12
  br label %ehcleanup

ehcleanup:                                        ; preds = %lpad8, %lpad6
  call void @_ZNSt10shared_ptrIN5arrow8DataTypeEED2Ev(ptr noundef nonnull align 8 dereferenceable(16) %agg.tmp2) #12
  br label %ehcleanup10

ehcleanup10:                                      ; preds = %ehcleanup, %lpad
  call void @_ZNSt10shared_ptrIN5arrow8DataTypeEED2Ev(ptr noundef nonnull align 8 dereferenceable(16) %agg.tmp) #12
  br label %eh.resume

eh.resume:                                        ; preds = %ehcleanup10
  %exn = load ptr, ptr %exn.slot, align 8
  %sel = load i32, ptr %ehselector.slot, align 4
  %lpad.val = insertvalue { ptr, i32 } poison, ptr %exn, 0
  %lpad.val11 = insertvalue { ptr, i32 } %lpad.val, i32 %sel, 1
  resume { ptr, i32 } %lpad.val11
}