; Function Attrs: mustprogress uwtable
define void @_ZN5arrow10MapBuilderC2EPNS_10MemoryPoolERKSt10shared_ptrINS_12ArrayBuilderEES7_b(ptr noundef nonnull align 8 dereferenceable(296) %this, ptr noundef %pool, ptr nocapture noundef nonnull readonly align 8 dereferenceable(16) %key_builder, ptr nocapture noundef nonnull readonly align 8 dereferenceable(16) %item_builder, i1 noundef zeroext %keys_sorted) unnamed_addr #0 align 2 personality ptr @__gxx_personality_v0 {
entry:
  %ref.tmp = alloca %"class.std::shared_ptr.10", align 8
  %agg.tmp = alloca %"class.std::shared_ptr.10", align 8
  %agg.tmp2 = alloca %"class.std::shared_ptr.10", align 8
  %0 = load ptr, ptr %key_builder, align 8
  %vtable = load ptr, ptr %0, align 8
  %vfn = getelementptr inbounds i8, ptr %vtable, i64 104
  %1 = load ptr, ptr %vfn, align 8
  call void %1(ptr nonnull sret(%"class.std::shared_ptr.10") align 8 %agg.tmp, ptr noundef nonnull align 8 dereferenceable(144) %0)
  %2 = load ptr, ptr %item_builder, align 8
  %vtable4 = load ptr, ptr %2, align 8
  %vfn5 = getelementptr inbounds i8, ptr %vtable4, i64 104
  %3 = load ptr, ptr %vfn5, align 8
  invoke void %3(ptr nonnull sret(%"class.std::shared_ptr.10") align 8 %agg.tmp2, ptr noundef nonnull align 8 dereferenceable(144) %2)
          to label %invoke.cont unwind label %lpad

invoke.cont:                                      ; preds = %entry
  invoke void @_ZN5arrow3mapESt10shared_ptrINS_8DataTypeEES2_b(ptr nonnull sret(%"class.std::shared_ptr.10") align 8 %ref.tmp, ptr noundef nonnull %agg.tmp, ptr noundef nonnull %agg.tmp2, i1 noundef zeroext %keys_sorted)
          to label %invoke.cont7 unwind label %lpad6

invoke.cont7:                                     ; preds = %invoke.cont
  invoke void @_ZN5arrow10MapBuilderC2EPNS_10MemoryPoolERKSt10shared_ptrINS_12ArrayBuilderEES7_RKS3_INS_8DataTypeEE(ptr noundef nonnull align 8 dereferenceable(296) %this, ptr noundef %pool, ptr noundef nonnull align 8 dereferenceable(16) %key_builder, ptr noundef nonnull align 8 dereferenceable(16) %item_builder, ptr noundef nonnull align 8 dereferenceable(16) %ref.tmp)
          to label %invoke.cont9 unwind label %lpad8

invoke.cont9:                                     ; preds = %invoke.cont7
  %_M_refcount.i.i = getelementptr inbounds i8, ptr %ref.tmp, i64 8
  %4 = load ptr, ptr %_M_refcount.i.i, align 8
  %cmp.not.i.i.i = icmp eq ptr %4, null
  br i1 %cmp.not.i.i.i, label %_ZNSt10shared_ptrIN5arrow8DataTypeEED2Ev.exit, label %if.then.i.i.i

if.then.i.i.i:                                    ; preds = %invoke.cont9
  %_M_use_count.i.i.i.i = getelementptr inbounds i8, ptr %4, i64 8
  %5 = load atomic i64, ptr %_M_use_count.i.i.i.i acquire, align 8
  %cmp.i.i.i.i = icmp eq i64 %5, 4294967297
  %6 = trunc i64 %5 to i32
  br i1 %cmp.i.i.i.i, label %if.then.i.i.i.i, label %if.end.i.i.i.i

if.then.i.i.i.i:                                  ; preds = %if.then.i.i.i
  store i32 0, ptr %_M_use_count.i.i.i.i, align 8
  %_M_weak_count.i.i.i.i = getelementptr inbounds i8, ptr %4, i64 12
  store i32 0, ptr %_M_weak_count.i.i.i.i, align 4
  %vtable.i.i.i.i = load ptr, ptr %4, align 8
  %vfn.i.i.i.i = getelementptr inbounds i8, ptr %vtable.i.i.i.i, i64 16
  %7 = load ptr, ptr %vfn.i.i.i.i, align 8
  call void %7(ptr noundef nonnull align 8 dereferenceable(16) %4) #16
  br label %if.end8.sink.split.i.i.i.i

if.end.i.i.i.i:                                   ; preds = %if.then.i.i.i
  %8 = load i8, ptr @__libc_single_threaded, align 1
  %tobool.i.not.i.i.i.i = icmp eq i8 %8, 0
  br i1 %tobool.i.not.i.i.i.i, label %if.else.i.i.i.i.i, label %if.then.i.i.i.i.i

if.then.i.i.i.i.i:                                ; preds = %if.end.i.i.i.i
  %add.i.i.i.i.i = add nsw i32 %6, -1
  store i32 %add.i.i.i.i.i, ptr %_M_use_count.i.i.i.i, align 4
  br label %_ZN9__gnu_cxx27__exchange_and_add_dispatchEPii.exit.i.i.i.i

if.else.i.i.i.i.i:                                ; preds = %if.end.i.i.i.i
  %9 = atomicrmw volatile add ptr %_M_use_count.i.i.i.i, i32 -1 acq_rel, align 4
  br label %_ZN9__gnu_cxx27__exchange_and_add_dispatchEPii.exit.i.i.i.i

_ZN9__gnu_cxx27__exchange_and_add_dispatchEPii.exit.i.i.i.i: ; preds = %if.else.i.i.i.i.i, %if.then.i.i.i.i.i
  %retval.i.0.i.i.i.i = phi i32 [ %6, %if.then.i.i.i.i.i ], [ %9, %if.else.i.i.i.i.i ]
  %cmp6.i.i.i.i = icmp eq i32 %retval.i.0.i.i.i.i, 1
  br i1 %cmp6.i.i.i.i, label %if.then7.i.i.i.i, label %_ZNSt10shared_ptrIN5arrow8DataTypeEED2Ev.exit

if.then7.i.i.i.i:                                 ; preds = %_ZN9__gnu_cxx27__exchange_and_add_dispatchEPii.exit.i.i.i.i
  %vtable.i.i.i.i.i.i = load ptr, ptr %4, align 8
  %vfn.i.i.i.i.i.i = getelementptr inbounds i8, ptr %vtable.i.i.i.i.i.i, i64 16
  %10 = load ptr, ptr %vfn.i.i.i.i.i.i, align 8
  call void %10(ptr noundef nonnull align 8 dereferenceable(16) %4) #16
  %_M_weak_count.i.i.i.i.i.i = getelementptr inbounds i8, ptr %4, i64 12
  %11 = load i8, ptr @__libc_single_threaded, align 1
  %tobool.i.not.i.i.i.i.i.i = icmp eq i8 %11, 0
  br i1 %tobool.i.not.i.i.i.i.i.i, label %if.else.i.i.i.i.i.i.i, label %if.then.i.i.i.i.i.i.i

if.then.i.i.i.i.i.i.i:                            ; preds = %if.then7.i.i.i.i
  %12 = load i32, ptr %_M_weak_count.i.i.i.i.i.i, align 4
  %add.i.i.i.i.i.i.i = add nsw i32 %12, -1
  store i32 %add.i.i.i.i.i.i.i, ptr %_M_weak_count.i.i.i.i.i.i, align 4
  br label %_ZN9__gnu_cxx27__exchange_and_add_dispatchEPii.exit.i.i.i.i.i.i

if.else.i.i.i.i.i.i.i:                            ; preds = %if.then7.i.i.i.i
  %13 = atomicrmw volatile add ptr %_M_weak_count.i.i.i.i.i.i, i32 -1 acq_rel, align 4
  br label %_ZN9__gnu_cxx27__exchange_and_add_dispatchEPii.exit.i.i.i.i.i.i

_ZN9__gnu_cxx27__exchange_and_add_dispatchEPii.exit.i.i.i.i.i.i: ; preds = %if.else.i.i.i.i.i.i.i, %if.then.i.i.i.i.i.i.i
  %retval.i.0.i.i.i.i.i.i = phi i32 [ %12, %if.then.i.i.i.i.i.i.i ], [ %13, %if.else.i.i.i.i.i.i.i ]
  %cmp.i.i.i.i.i.i = icmp eq i32 %retval.i.0.i.i.i.i.i.i, 1
  br i1 %cmp.i.i.i.i.i.i, label %if.end8.sink.split.i.i.i.i, label %_ZNSt10shared_ptrIN5arrow8DataTypeEED2Ev.exit

if.end8.sink.split.i.i.i.i:                       ; preds = %_ZN9__gnu_cxx27__exchange_and_add_dispatchEPii.exit.i.i.i.i.i.i, %if.then.i.i.i.i
  %vtable2.i.i.i.i.i.i = load ptr, ptr %4, align 8
  %vfn3.i.i.i.i.i.i = getelementptr inbounds i8, ptr %vtable2.i.i.i.i.i.i, i64 24
  %14 = load ptr, ptr %vfn3.i.i.i.i.i.i, align 8
  call void %14(ptr noundef nonnull align 8 dereferenceable(16) %4) #16
  br label %_ZNSt10shared_ptrIN5arrow8DataTypeEED2Ev.exit

_ZNSt10shared_ptrIN5arrow8DataTypeEED2Ev.exit:    ; preds = %invoke.cont9, %_ZN9__gnu_cxx27__exchange_and_add_dispatchEPii.exit.i.i.i.i, %_ZN9__gnu_cxx27__exchange_and_add_dispatchEPii.exit.i.i.i.i.i.i, %if.end8.sink.split.i.i.i.i
  %_M_refcount.i.i5 = getelementptr inbounds i8, ptr %agg.tmp2, i64 8
  %15 = load ptr, ptr %_M_refcount.i.i5, align 8
  %cmp.not.i.i.i6 = icmp eq ptr %15, null
  br i1 %cmp.not.i.i.i6, label %_ZNSt10shared_ptrIN5arrow8DataTypeEED2Ev.exit36, label %if.then.i.i.i7

if.then.i.i.i7:                                   ; preds = %_ZNSt10shared_ptrIN5arrow8DataTypeEED2Ev.exit
  %_M_use_count.i.i.i.i8 = getelementptr inbounds i8, ptr %15, i64 8
  %16 = load atomic i64, ptr %_M_use_count.i.i.i.i8 acquire, align 8
  %cmp.i.i.i.i9 = icmp eq i64 %16, 4294967297
  %17 = trunc i64 %16 to i32
  br i1 %cmp.i.i.i.i9, label %if.then.i.i.i.i32, label %if.end.i.i.i.i10

if.then.i.i.i.i32:                                ; preds = %if.then.i.i.i7
  store i32 0, ptr %_M_use_count.i.i.i.i8, align 8
  %_M_weak_count.i.i.i.i33 = getelementptr inbounds i8, ptr %15, i64 12
  store i32 0, ptr %_M_weak_count.i.i.i.i33, align 4
  %vtable.i.i.i.i34 = load ptr, ptr %15, align 8
  %vfn.i.i.i.i35 = getelementptr inbounds i8, ptr %vtable.i.i.i.i34, i64 16
  %18 = load ptr, ptr %vfn.i.i.i.i35, align 8
  call void %18(ptr noundef nonnull align 8 dereferenceable(16) %15) #16
  br label %if.end8.sink.split.i.i.i.i27

if.end.i.i.i.i10:                                 ; preds = %if.then.i.i.i7
  %19 = load i8, ptr @__libc_single_threaded, align 1
  %tobool.i.not.i.i.i.i11 = icmp eq i8 %19, 0
  br i1 %tobool.i.not.i.i.i.i11, label %if.else.i.i.i.i.i31, label %if.then.i.i.i.i.i12

if.then.i.i.i.i.i12:                              ; preds = %if.end.i.i.i.i10
  %add.i.i.i.i.i13 = add nsw i32 %17, -1
  store i32 %add.i.i.i.i.i13, ptr %_M_use_count.i.i.i.i8, align 4
  br label %_ZN9__gnu_cxx27__exchange_and_add_dispatchEPii.exit.i.i.i.i14

if.else.i.i.i.i.i31:                              ; preds = %if.end.i.i.i.i10
  %20 = atomicrmw volatile add ptr %_M_use_count.i.i.i.i8, i32 -1 acq_rel, align 4
  br label %_ZN9__gnu_cxx27__exchange_and_add_dispatchEPii.exit.i.i.i.i14

_ZN9__gnu_cxx27__exchange_and_add_dispatchEPii.exit.i.i.i.i14: ; preds = %if.else.i.i.i.i.i31, %if.then.i.i.i.i.i12
  %retval.i.0.i.i.i.i15 = phi i32 [ %17, %if.then.i.i.i.i.i12 ], [ %20, %if.else.i.i.i.i.i31 ]
  %cmp6.i.i.i.i16 = icmp eq i32 %retval.i.0.i.i.i.i15, 1
  br i1 %cmp6.i.i.i.i16, label %if.then7.i.i.i.i17, label %_ZNSt10shared_ptrIN5arrow8DataTypeEED2Ev.exit36

if.then7.i.i.i.i17:                               ; preds = %_ZN9__gnu_cxx27__exchange_and_add_dispatchEPii.exit.i.i.i.i14
  %vtable.i.i.i.i.i.i18 = load ptr, ptr %15, align 8
  %vfn.i.i.i.i.i.i19 = getelementptr inbounds i8, ptr %vtable.i.i.i.i.i.i18, i64 16
  %21 = load ptr, ptr %vfn.i.i.i.i.i.i19, align 8
  call void %21(ptr noundef nonnull align 8 dereferenceable(16) %15) #16
  %_M_weak_count.i.i.i.i.i.i20 = getelementptr inbounds i8, ptr %15, i64 12
  %22 = load i8, ptr @__libc_single_threaded, align 1
  %tobool.i.not.i.i.i.i.i.i21 = icmp eq i8 %22, 0
  br i1 %tobool.i.not.i.i.i.i.i.i21, label %if.else.i.i.i.i.i.i.i30, label %if.then.i.i.i.i.i.i.i22

if.then.i.i.i.i.i.i.i22:                          ; preds = %if.then7.i.i.i.i17
  %23 = load i32, ptr %_M_weak_count.i.i.i.i.i.i20, align 4
  %add.i.i.i.i.i.i.i23 = add nsw i32 %23, -1
  store i32 %add.i.i.i.i.i.i.i23, ptr %_M_weak_count.i.i.i.i.i.i20, align 4
  br label %_ZN9__gnu_cxx27__exchange_and_add_dispatchEPii.exit.i.i.i.i.i.i24

if.else.i.i.i.i.i.i.i30:                          ; preds = %if.then7.i.i.i.i17
  %24 = atomicrmw volatile add ptr %_M_weak_count.i.i.i.i.i.i20, i32 -1 acq_rel, align 4
  br label %_ZN9__gnu_cxx27__exchange_and_add_dispatchEPii.exit.i.i.i.i.i.i24

_ZN9__gnu_cxx27__exchange_and_add_dispatchEPii.exit.i.i.i.i.i.i24: ; preds = %if.else.i.i.i.i.i.i.i30, %if.then.i.i.i.i.i.i.i22
  %retval.i.0.i.i.i.i.i.i25 = phi i32 [ %23, %if.then.i.i.i.i.i.i.i22 ], [ %24, %if.else.i.i.i.i.i.i.i30 ]
  %cmp.i.i.i.i.i.i26 = icmp eq i32 %retval.i.0.i.i.i.i.i.i25, 1
  br i1 %cmp.i.i.i.i.i.i26, label %if.end8.sink.split.i.i.i.i27, label %_ZNSt10shared_ptrIN5arrow8DataTypeEED2Ev.exit36

if.end8.sink.split.i.i.i.i27:                     ; preds = %_ZN9__gnu_cxx27__exchange_and_add_dispatchEPii.exit.i.i.i.i.i.i24, %if.then.i.i.i.i32
  %vtable2.i.i.i.i.i.i28 = load ptr, ptr %15, align 8
  %vfn3.i.i.i.i.i.i29 = getelementptr inbounds i8, ptr %vtable2.i.i.i.i.i.i28, i64 24
  %25 = load ptr, ptr %vfn3.i.i.i.i.i.i29, align 8
  call void %25(ptr noundef nonnull align 8 dereferenceable(16) %15) #16
  br label %_ZNSt10shared_ptrIN5arrow8DataTypeEED2Ev.exit36

_ZNSt10shared_ptrIN5arrow8DataTypeEED2Ev.exit36:  ; preds = %_ZNSt10shared_ptrIN5arrow8DataTypeEED2Ev.exit, %_ZN9__gnu_cxx27__exchange_and_add_dispatchEPii.exit.i.i.i.i14, %_ZN9__gnu_cxx27__exchange_and_add_dispatchEPii.exit.i.i.i.i.i.i24, %if.end8.sink.split.i.i.i.i27
  %_M_refcount.i.i37 = getelementptr inbounds i8, ptr %agg.tmp, i64 8
  %26 = load ptr, ptr %_M_refcount.i.i37, align 8
  %cmp.not.i.i.i38 = icmp eq ptr %26, null
  br i1 %cmp.not.i.i.i38, label %_ZNSt10shared_ptrIN5arrow8DataTypeEED2Ev.exit68, label %if.then.i.i.i39

if.then.i.i.i39:                                  ; preds = %_ZNSt10shared_ptrIN5arrow8DataTypeEED2Ev.exit36
  %_M_use_count.i.i.i.i40 = getelementptr inbounds i8, ptr %26, i64 8
  %27 = load atomic i64, ptr %_M_use_count.i.i.i.i40 acquire, align 8
  %cmp.i.i.i.i41 = icmp eq i64 %27, 4294967297
  %28 = trunc i64 %27 to i32
  br i1 %cmp.i.i.i.i41, label %if.then.i.i.i.i64, label %if.end.i.i.i.i42

if.then.i.i.i.i64:                                ; preds = %if.then.i.i.i39
  store i32 0, ptr %_M_use_count.i.i.i.i40, align 8
  %_M_weak_count.i.i.i.i65 = getelementptr inbounds i8, ptr %26, i64 12
  store i32 0, ptr %_M_weak_count.i.i.i.i65, align 4
  %vtable.i.i.i.i66 = load ptr, ptr %26, align 8
  %vfn.i.i.i.i67 = getelementptr inbounds i8, ptr %vtable.i.i.i.i66, i64 16
  %29 = load ptr, ptr %vfn.i.i.i.i67, align 8
  call void %29(ptr noundef nonnull align 8 dereferenceable(16) %26) #16
  br label %if.end8.sink.split.i.i.i.i59

if.end.i.i.i.i42:                                 ; preds = %if.then.i.i.i39
  %30 = load i8, ptr @__libc_single_threaded, align 1
  %tobool.i.not.i.i.i.i43 = icmp eq i8 %30, 0
  br i1 %tobool.i.not.i.i.i.i43, label %if.else.i.i.i.i.i63, label %if.then.i.i.i.i.i44

if.then.i.i.i.i.i44:                              ; preds = %if.end.i.i.i.i42
  %add.i.i.i.i.i45 = add nsw i32 %28, -1
  store i32 %add.i.i.i.i.i45, ptr %_M_use_count.i.i.i.i40, align 4
  br label %_ZN9__gnu_cxx27__exchange_and_add_dispatchEPii.exit.i.i.i.i46

if.else.i.i.i.i.i63:                              ; preds = %if.end.i.i.i.i42
  %31 = atomicrmw volatile add ptr %_M_use_count.i.i.i.i40, i32 -1 acq_rel, align 4
  br label %_ZN9__gnu_cxx27__exchange_and_add_dispatchEPii.exit.i.i.i.i46

_ZN9__gnu_cxx27__exchange_and_add_dispatchEPii.exit.i.i.i.i46: ; preds = %if.else.i.i.i.i.i63, %if.then.i.i.i.i.i44
  %retval.i.0.i.i.i.i47 = phi i32 [ %28, %if.then.i.i.i.i.i44 ], [ %31, %if.else.i.i.i.i.i63 ]
  %cmp6.i.i.i.i48 = icmp eq i32 %retval.i.0.i.i.i.i47, 1
  br i1 %cmp6.i.i.i.i48, label %if.then7.i.i.i.i49, label %_ZNSt10shared_ptrIN5arrow8DataTypeEED2Ev.exit68

if.then7.i.i.i.i49:                               ; preds = %_ZN9__gnu_cxx27__exchange_and_add_dispatchEPii.exit.i.i.i.i46
  %vtable.i.i.i.i.i.i50 = load ptr, ptr %26, align 8
  %vfn.i.i.i.i.i.i51 = getelementptr inbounds i8, ptr %vtable.i.i.i.i.i.i50, i64 16
  %32 = load ptr, ptr %vfn.i.i.i.i.i.i51, align 8
  call void %32(ptr noundef nonnull align 8 dereferenceable(16) %26) #16
  %_M_weak_count.i.i.i.i.i.i52 = getelementptr inbounds i8, ptr %26, i64 12
  %33 = load i8, ptr @__libc_single_threaded, align 1
  %tobool.i.not.i.i.i.i.i.i53 = icmp eq i8 %33, 0
  br i1 %tobool.i.not.i.i.i.i.i.i53, label %if.else.i.i.i.i.i.i.i62, label %if.then.i.i.i.i.i.i.i54

if.then.i.i.i.i.i.i.i54:                          ; preds = %if.then7.i.i.i.i49
  %34 = load i32, ptr %_M_weak_count.i.i.i.i.i.i52, align 4
  %add.i.i.i.i.i.i.i55 = add nsw i32 %34, -1
  store i32 %add.i.i.i.i.i.i.i55, ptr %_M_weak_count.i.i.i.i.i.i52, align 4
  br label %_ZN9__gnu_cxx27__exchange_and_add_dispatchEPii.exit.i.i.i.i.i.i56

if.else.i.i.i.i.i.i.i62:                          ; preds = %if.then7.i.i.i.i49
  %35 = atomicrmw volatile add ptr %_M_weak_count.i.i.i.i.i.i52, i32 -1 acq_rel, align 4
  br label %_ZN9__gnu_cxx27__exchange_and_add_dispatchEPii.exit.i.i.i.i.i.i56

_ZN9__gnu_cxx27__exchange_and_add_dispatchEPii.exit.i.i.i.i.i.i56: ; preds = %if.else.i.i.i.i.i.i.i62, %if.then.i.i.i.i.i.i.i54
  %retval.i.0.i.i.i.i.i.i57 = phi i32 [ %34, %if.then.i.i.i.i.i.i.i54 ], [ %35, %if.else.i.i.i.i.i.i.i62 ]
  %cmp.i.i.i.i.i.i58 = icmp eq i32 %retval.i.0.i.i.i.i.i.i57, 1
  br i1 %cmp.i.i.i.i.i.i58, label %if.end8.sink.split.i.i.i.i59, label %_ZNSt10shared_ptrIN5arrow8DataTypeEED2Ev.exit68

if.end8.sink.split.i.i.i.i59:                     ; preds = %_ZN9__gnu_cxx27__exchange_and_add_dispatchEPii.exit.i.i.i.i.i.i56, %if.then.i.i.i.i64
  %vtable2.i.i.i.i.i.i60 = load ptr, ptr %26, align 8
  %vfn3.i.i.i.i.i.i61 = getelementptr inbounds i8, ptr %vtable2.i.i.i.i.i.i60, i64 24
  %36 = load ptr, ptr %vfn3.i.i.i.i.i.i61, align 8
  call void %36(ptr noundef nonnull align 8 dereferenceable(16) %26) #16
  br label %_ZNSt10shared_ptrIN5arrow8DataTypeEED2Ev.exit68

_ZNSt10shared_ptrIN5arrow8DataTypeEED2Ev.exit68:  ; preds = %_ZNSt10shared_ptrIN5arrow8DataTypeEED2Ev.exit36, %_ZN9__gnu_cxx27__exchange_and_add_dispatchEPii.exit.i.i.i.i46, %_ZN9__gnu_cxx27__exchange_and_add_dispatchEPii.exit.i.i.i.i.i.i56, %if.end8.sink.split.i.i.i.i59
  ret void

lpad:                                             ; preds = %entry
  %37 = landingpad { ptr, i32 }
          cleanup
  br label %ehcleanup10

lpad6:                                            ; preds = %invoke.cont
  %38 = landingpad { ptr, i32 }
          cleanup
  br label %ehcleanup

lpad8:                                            ; preds = %invoke.cont7
  %39 = landingpad { ptr, i32 }
          cleanup
  call void @_ZNSt10shared_ptrIN5arrow8DataTypeEED2Ev(ptr noundef nonnull align 8 dereferenceable(16) %ref.tmp) #16
  br label %ehcleanup

ehcleanup:                                        ; preds = %lpad8, %lpad6
  %.pn = phi { ptr, i32 } [ %39, %lpad8 ], [ %38, %lpad6 ]
  call void @_ZNSt10shared_ptrIN5arrow8DataTypeEED2Ev(ptr noundef nonnull align 8 dereferenceable(16) %agg.tmp2) #16
  br label %ehcleanup10

ehcleanup10:                                      ; preds = %ehcleanup, %lpad
  %.pn.pn = phi { ptr, i32 } [ %.pn, %ehcleanup ], [ %37, %lpad ]
  call void @_ZNSt10shared_ptrIN5arrow8DataTypeEED2Ev(ptr noundef nonnull align 8 dereferenceable(16) %agg.tmp) #16
  resume { ptr, i32 } %.pn.pn
}